target datalayout = "e-m:e-p270:32:32-p271:32:32-p272:64:64-i64:64-i128:128-f80:128-n8:16:32:64-S128"
target triple = "x86_64-pc-linux-gnu"

%"class.llvm::MCInst" = type { i32, i32, %"class.llvm::SMLoc", %"class.llvm::SmallVector" }
%"class.llvm::SMLoc" = type { ptr }
%"class.llvm::SmallVector" = type { %"class.llvm::SmallVectorImpl", %"struct.llvm::SmallVectorStorage" }
%"class.llvm::SmallVectorImpl" = type { %"class.llvm::SmallVectorTemplateBase" }
%"class.llvm::SmallVectorTemplateBase" = type { %"class.llvm::SmallVectorTemplateCommon" }
%"class.llvm::SmallVectorTemplateCommon" = type { %"class.llvm::SmallVectorBase" }
%"class.llvm::SmallVectorBase" = type { ptr, i32, i32 }
%"struct.llvm::SmallVectorStorage" = type { [96 x i8] }
%"class.llvm::StringRef" = type { ptr, i64 }
%"class.llvm::raw_ostream" = type { ptr, i32, ptr, ptr, ptr, i8, i32 }
%"class.llvm::MCInstPrinter::WithMarkup" = type <{ ptr, i8, i8, [6 x i8] }>
%"class.llvm::MCOperand" = type { i8, %union.anon.14 }
%union.anon.14 = type { i64 }

@.str.1 = private unnamed_addr constant [3 x i8] c", \00", align 1
@.str.79 = private unnamed_addr constant [5 x i8] c"sxtb\00", align 1
@.str.80 = private unnamed_addr constant [5 x i8] c"uxtb\00", align 1
@.str.81 = private unnamed_addr constant [5 x i8] c"sxth\00", align 1
@.str.82 = private unnamed_addr constant [5 x i8] c"uxth\00", align 1
@.str.83 = private unnamed_addr constant [5 x i8] c"sxtw\00", align 1
@.str.84 = private unnamed_addr constant [4 x i8] c"lsl\00", align 1
@.str.85 = private unnamed_addr constant [4 x i8] c"lsr\00", align 1
@.str.86 = private unnamed_addr constant [4 x i8] c"asr\00", align 1
@.str.87 = private unnamed_addr constant [2 x i8] c"#\00", align 1
@.str.119 = private unnamed_addr constant [2 x i8] c" \00", align 1
@.str.144 = private unnamed_addr constant [4 x i8] c"ror\00", align 1
@.str.145 = private unnamed_addr constant [4 x i8] c"msl\00", align 1
@.str.146 = private unnamed_addr constant [5 x i8] c"uxtw\00", align 1
@.str.147 = private unnamed_addr constant [5 x i8] c"uxtx\00", align 1
@.str.148 = private unnamed_addr constant [5 x i8] c"sxtx\00", align 1

; Function Attrs: mustprogress nounwind uwtable
define linkonce_odr hidden noundef ptr @_ZNK4llvm9StringRef4dataEv(ptr noundef nonnull align 8 dereferenceable(16) %0) #0 comdat align 2 {
  %2 = alloca ptr, align 8
  store ptr %0, ptr %2, align 8
  %3 = load ptr, ptr %2, align 8
  %4 = getelementptr inbounds nuw %"class.llvm::StringRef", ptr %3, i32 0, i32 0
  %5 = load ptr, ptr %4, align 8
  ret ptr %5
}

; Function Attrs: mustprogress nounwind uwtable
define linkonce_odr hidden noundef i64 @_ZNK4llvm9StringRef4sizeEv(ptr noundef nonnull align 8 dereferenceable(16) %0) #0 comdat align 2 {
  %2 = alloca ptr, align 8
  store ptr %0, ptr %2, align 8
  %3 = load ptr, ptr %2, align 8
  %4 = getelementptr inbounds nuw %"class.llvm::StringRef", ptr %3, i32 0, i32 1
  %5 = load i64, ptr %4, align 8
  ret i64 %5
}

; Function Attrs: mustprogress nounwind uwtable
define linkonce_odr hidden noundef i64 @_ZNSt11char_traitsIcE6lengthEPKc(ptr noundef %0) #0 comdat align 2 {
  %2 = alloca ptr, align 8
  store ptr %0, ptr %2, align 8
  %3 = load ptr, ptr %2, align 8
  %4 = call i64 @strlen(ptr noundef %3) #12
  ret i64 %4
}

; Function Attrs: mustprogress nounwind uwtable
define linkonce_odr hidden noundef ptr @_ZNK4llvm25SmallVectorTemplateCommonINS_9MCOperandEvE5beginEv(ptr noundef nonnull align 8 dereferenceable(16) %0) #0 comdat align 2 {
  %2 = alloca ptr, align 8
  store ptr %0, ptr %2, align 8
  %3 = load ptr, ptr %2, align 8
  %4 = getelementptr inbounds nuw %"class.llvm::SmallVectorBase", ptr %3, i32 0, i32 0
  %5 = load ptr, ptr %4, align 8
  ret ptr %5
}

; Function Attrs: mustprogress nounwind uwtable
define linkonce_odr hidden noundef nonnull align 8 dereferenceable(48) ptr @_ZN4llvm11raw_ostreamlsEj(ptr noundef nonnull align 8 dereferenceable(48) %0, i32 noundef %1) #0 comdat align 2 {
  %3 = alloca ptr, align 8
  %4 = alloca i32, align 4
  store ptr %0, ptr %3, align 8
  store i32 %1, ptr %4, align 4
  %5 = load ptr, ptr %3, align 8
  %6 = load i32, ptr %4, align 4
  %7 = zext i32 %6 to i64
  %8 = call noundef nonnull align 8 dereferenceable(48) ptr @_ZN4llvm11raw_ostreamlsEm(ptr noundef nonnull align 8 dereferenceable(48) %5, i64 noundef %7)
  ret ptr %8
}

; Function Attrs: mustprogress nounwind uwtable
define linkonce_odr hidden noundef nonnull align 8 dereferenceable(48) ptr @_ZN4llvm11raw_ostreamlsENS_9StringRefE(ptr noundef nonnull align 8 dereferenceable(48) %0, ptr %1, i64 %2) #0 comdat align 2 {
  %4 = alloca ptr, align 8
  %5 = alloca %"class.llvm::StringRef", align 8
  %6 = alloca ptr, align 8
  %7 = alloca i64, align 8
  %8 = getelementptr inbounds nuw { ptr, i64 }, ptr %5, i32 0, i32 0
  store ptr %1, ptr %8, align 8
  %9 = getelementptr inbounds nuw { ptr, i64 }, ptr %5, i32 0, i32 1
  store i64 %2, ptr %9, align 8
  store ptr %0, ptr %6, align 8
  %10 = load ptr, ptr %6, align 8
  %11 = call noundef i64 @_ZNK4llvm9StringRef4sizeEv(ptr noundef nonnull align 8 dereferenceable(16) %5)
  store i64 %11, ptr %7, align 8
  %12 = load i64, ptr %7, align 8
  %13 = getelementptr inbounds nuw %"class.llvm::raw_ostream", ptr %10, i32 0, i32 3
  %14 = load ptr, ptr %13, align 8
  %15 = getelementptr inbounds nuw %"class.llvm::raw_ostream", ptr %10, i32 0, i32 4
  %16 = load ptr, ptr %15, align 8
  %17 = ptrtoint ptr %14 to i64
  %18 = ptrtoint ptr %16 to i64
  %19 = sub i64 %17, %18
  %20 = icmp ugt i64 %12, %19
  br i1 %20, label %21, label %25

21:                                               ; preds = %3
  %22 = call noundef ptr @_ZNK4llvm9StringRef4dataEv(ptr noundef nonnull align 8 dereferenceable(16) %5)
  %23 = load i64, ptr %7, align 8
  %24 = call noundef nonnull align 8 dereferenceable(48) ptr @_ZN4llvm11raw_ostream5writeEPKcm(ptr noundef nonnull align 8 dereferenceable(48) %10, ptr noundef %22, i64 noundef %23)
  store ptr %24, ptr %4, align 8
  br label %38

25:                                               ; preds = %3
  %26 = load i64, ptr %7, align 8
  %27 = icmp ne i64 %26, 0
  br i1 %27, label %28, label %37

28:                                               ; preds = %25
  %29 = getelementptr inbounds nuw %"class.llvm::raw_ostream", ptr %10, i32 0, i32 4
  %30 = load ptr, ptr %29, align 8
  %31 = call noundef ptr @_ZNK4llvm9StringRef4dataEv(ptr noundef nonnull align 8 dereferenceable(16) %5)
  %32 = load i64, ptr %7, align 8
  call void @llvm.memcpy.p0.p0.i64(ptr align 1 %30, ptr align 1 %31, i64 %32, i1 false)
  %33 = load i64, ptr %7, align 8
  %34 = getelementptr inbounds nuw %"class.llvm::raw_ostream", ptr %10, i32 0, i32 4
  %35 = load ptr, ptr %34, align 8
  %36 = getelementptr inbounds i8, ptr %35, i64 %33
  store ptr %36, ptr %34, align 8
  br label %37

37:                                               ; preds = %28, %25
  store ptr %10, ptr %4, align 8
  br label %38

38:                                               ; preds = %37, %21
  %39 = load ptr, ptr %4, align 8
  ret ptr %39
}

; Function Attrs: mustprogress nounwind uwtable
define linkonce_odr hidden void @_ZN4llvm9StringRefC2EPKc(ptr noundef nonnull align 8 dereferenceable(16) %0, ptr noundef %1) unnamed_addr #0 comdat align 2 {
  %3 = alloca ptr, align 8
  %4 = alloca ptr, align 8
  store ptr %0, ptr %3, align 8
  store ptr %1, ptr %4, align 8
  %5 = load ptr, ptr %3, align 8
  %6 = getelementptr inbounds nuw %"class.llvm::StringRef", ptr %5, i32 0, i32 0
  %7 = load ptr, ptr %4, align 8
  store ptr %7, ptr %6, align 8
  %8 = getelementptr inbounds nuw %"class.llvm::StringRef", ptr %5, i32 0, i32 1
  %9 = load ptr, ptr %4, align 8
  %10 = icmp ne ptr %9, null
  br i1 %10, label %11, label %14

11:                                               ; preds = %2
  %12 = load ptr, ptr %4, align 8
  %13 = call noundef i64 @_ZNSt11char_traitsIcE6lengthEPKc(ptr noundef %12)
  br label %15

14:                                               ; preds = %2
  br label %15

15:                                               ; preds = %14, %11
  %16 = phi i64 [ %13, %11 ], [ 0, %14 ]
  store i64 %16, ptr %8, align 8
  ret void
}

; Function Attrs: mustprogress nounwind uwtable
define linkonce_odr hidden noundef nonnull align 8 dereferenceable(16) ptr @_ZNK4llvm25SmallVectorTemplateCommonINS_9MCOperandEvEixEm(ptr noundef nonnull align 8 dereferenceable(16) %0, i64 noundef %1) #0 comdat align 2 {
  %3 = alloca ptr, align 8
  %4 = alloca i64, align 8
  store ptr %0, ptr %3, align 8
  store i64 %1, ptr %4, align 8
  %5 = load ptr, ptr %3, align 8
  %6 = call noundef ptr @_ZNK4llvm25SmallVectorTemplateCommonINS_9MCOperandEvE5beginEv(ptr noundef nonnull align 8 dereferenceable(16) %5)
  %7 = load i64, ptr %4, align 8
  %8 = getelementptr inbounds %"class.llvm::MCOperand", ptr %6, i64 %7
  ret ptr %8
}

; Function Attrs: mustprogress nounwind uwtable
define linkonce_odr hidden noundef nonnull align 8 dereferenceable(10) ptr @_ZN4llvm13MCInstPrinter10WithMarkuplsIjEERS1_RKT_(ptr noundef nonnull align 8 dereferenceable(10) %0, ptr noundef nonnull align 4 dereferenceable(4) %1) #0 comdat align 2 {
  %3 = alloca ptr, align 8
  %4 = alloca ptr, align 8
  store ptr %0, ptr %3, align 8
  store ptr %1, ptr %4, align 8
  %5 = load ptr, ptr %3, align 8
  %6 = getelementptr inbounds nuw %"class.llvm::MCInstPrinter::WithMarkup", ptr %5, i32 0, i32 0
  %7 = load ptr, ptr %6, align 8
  %8 = load ptr, ptr %4, align 8
  %9 = load i32, ptr %8, align 4
  %10 = call noundef nonnull align 8 dereferenceable(48) ptr @_ZN4llvm11raw_ostreamlsEj(ptr noundef nonnull align 8 dereferenceable(48) %7, i32 noundef %9)
  ret ptr %5
}

; Function Attrs: mustprogress nounwind uwtable
define linkonce_odr hidden noundef nonnull align 8 dereferenceable(10) ptr @_ZN4llvm13MCInstPrinter10WithMarkuplsIA2_cEERS1_RKT_(ptr noundef nonnull align 8 dereferenceable(10) %0, ptr noundef nonnull align 1 dereferenceable(2) %1) #0 comdat align 2 {
  %3 = alloca ptr, align 8
  %4 = alloca ptr, align 8
  store ptr %0, ptr %3, align 8
  store ptr %1, ptr %4, align 8
  %5 = load ptr, ptr %3, align 8
  %6 = getelementptr inbounds nuw %"class.llvm::MCInstPrinter::WithMarkup", ptr %5, i32 0, i32 0
  %7 = load ptr, ptr %6, align 8
  %8 = load ptr, ptr %4, align 8
  %9 = getelementptr inbounds [2 x i8], ptr %8, i64 0, i64 0
  %10 = call noundef nonnull align 8 dereferenceable(48) ptr @_ZN4llvm11raw_ostreamlsEPKc(ptr noundef nonnull align 8 dereferenceable(48) %7, ptr noundef %9)
  ret ptr %5
}

; Function Attrs: mustprogress nounwind uwtable
define internal noundef ptr @_ZN4llvm10AArch64_AML18getShiftExtendNameENS0_15ShiftExtendTypeE(i32 noundef %0) #0 {
  %2 = alloca ptr, align 8
  %3 = alloca i32, align 4
  store i32 %0, ptr %3, align 4
  %4 = load i32, ptr %3, align 4
  switch i32 %4, label %5 [
    i32 0, label %6
    i32 1, label %7
    i32 2, label %8
    i32 3, label %9
    i32 4, label %10
    i32 5, label %11
    i32 6, label %12
    i32 7, label %13
    i32 8, label %14
    i32 9, label %15
    i32 10, label %16
    i32 11, label %17
    i32 12, label %18
  ]

5:                                                ; preds = %1
  unreachable

6:                                                ; preds = %1
  store ptr @.str.84, ptr %2, align 8
  br label %19

7:                                                ; preds = %1
  store ptr @.str.85, ptr %2, align 8
  br label %19

8:                                                ; preds = %1
  store ptr @.str.86, ptr %2, align 8
  br label %19

9:                                                ; preds = %1
  store ptr @.str.144, ptr %2, align 8
  br label %19

10:                                               ; preds = %1
  store ptr @.str.145, ptr %2, align 8
  br label %19

11:                                               ; preds = %1
  store ptr @.str.80, ptr %2, align 8
  br label %19

12:                                               ; preds = %1
  store ptr @.str.82, ptr %2, align 8
  br label %19

13:                                               ; preds = %1
  store ptr @.str.146, ptr %2, align 8
  br label %19

14:                                               ; preds = %1
  store ptr @.str.147, ptr %2, align 8
  br label %19

15:                                               ; preds = %1
  store ptr @.str.79, ptr %2, align 8
  br label %19

16:                                               ; preds = %1
  store ptr @.str.81, ptr %2, align 8
  br label %19

17:                                               ; preds = %1
  store ptr @.str.83, ptr %2, align 8
  br label %19

18:                                               ; preds = %1
  store ptr @.str.148, ptr %2, align 8
  br label %19

19:                                               ; preds = %18, %17, %16, %15, %14, %13, %12, %11, %10, %9, %8, %7, %6
  %20 = load ptr, ptr %2, align 8
  ret ptr %20
}

; Function Attrs: mustprogress nounwind uwtable
define linkonce_odr hidden noundef nonnull align 8 dereferenceable(48) ptr @_ZN4llvm11raw_ostreamlsEPKc(ptr noundef nonnull align 8 dereferenceable(48) %0, ptr noundef %1) #0 comdat align 2 {
  %3 = alloca ptr, align 8
  %4 = alloca ptr, align 8
  %5 = alloca %"class.llvm::StringRef", align 8
  store ptr %0, ptr %3, align 8
  store ptr %1, ptr %4, align 8
  %6 = load ptr, ptr %3, align 8
  %7 = load ptr, ptr %4, align 8
  call void @_ZN4llvm9StringRefC2EPKc(ptr noundef nonnull align 8 dereferenceable(16) %5, ptr noundef %7)
  %8 = getelementptr inbounds nuw { ptr, i64 }, ptr %5, i32 0, i32 0
  %9 = load ptr, ptr %8, align 8
  %10 = getelementptr inbounds nuw { ptr, i64 }, ptr %5, i32 0, i32 1
  %11 = load i64, ptr %10, align 8
  %12 = call noundef nonnull align 8 dereferenceable(48) ptr @_ZN4llvm11raw_ostreamlsENS_9StringRefE(ptr noundef nonnull align 8 dereferenceable(48) %6, ptr %9, i64 %11)
  ret ptr %12
}

; Function Attrs: mustprogress nounwind uwtable
define internal noundef i32 @_ZN4llvm10AArch64_AML13getShiftValueEj(i32 noundef %0) #0 {
  %2 = alloca i32, align 4
  store i32 %0, ptr %2, align 4
  %3 = load i32, ptr %2, align 4
  %4 = and i32 %3, 63
  ret i32 %4
}

; Function Attrs: mustprogress nounwind uwtable
define internal noundef i32 @_ZN4llvm10AArch64_AML12getShiftTypeEj(i32 noundef %0) #0 {
  %2 = alloca i32, align 4
  %3 = alloca i32, align 4
  store i32 %0, ptr %3, align 4
  %4 = load i32, ptr %3, align 4
  %5 = lshr i32 %4, 6
  %6 = and i32 %5, 7
  switch i32 %6, label %7 [
    i32 0, label %8
    i32 1, label %9
    i32 2, label %10
    i32 3, label %11
    i32 4, label %12
  ]

7:                                                ; preds = %1
  store i32 -1, ptr %2, align 4
  br label %13

8:                                                ; preds = %1
  store i32 0, ptr %2, align 4
  br label %13

9:                                                ; preds = %1
  store i32 1, ptr %2, align 4
  br label %13

10:                                               ; preds = %1
  store i32 2, ptr %2, align 4
  br label %13

11:                                               ; preds = %1
  store i32 3, ptr %2, align 4
  br label %13

12:                                               ; preds = %1
  store i32 4, ptr %2, align 4
  br label %13

13:                                               ; preds = %12, %11, %10, %9, %8, %7
  %14 = load i32, ptr %2, align 4
  ret i32 %14
}

; Function Attrs: mustprogress nounwind uwtable
define linkonce_odr hidden noundef i64 @_ZNK4llvm9MCOperand6getImmEv(ptr noundef nonnull align 8 dereferenceable(16) %0) #0 comdat align 2 {
  %2 = alloca ptr, align 8
  store ptr %0, ptr %2, align 8
  %3 = load ptr, ptr %2, align 8
  %4 = getelementptr inbounds nuw %"class.llvm::MCOperand", ptr %3, i32 0, i32 1
  %5 = load i64, ptr %4, align 8
  ret i64 %5
}

; Function Attrs: mustprogress nounwind uwtable
define linkonce_odr hidden noundef nonnull align 8 dereferenceable(16) ptr @_ZNK4llvm6MCInst10getOperandEj(ptr noundef nonnull align 8 dereferenceable(128) %0, i32 noundef %1) #0 comdat align 2 {
  %3 = alloca ptr, align 8
  %4 = alloca i32, align 4
  store ptr %0, ptr %3, align 8
  store i32 %1, ptr %4, align 4
  %5 = load ptr, ptr %3, align 8
  %6 = getelementptr inbounds nuw %"class.llvm::MCInst", ptr %5, i32 0, i32 3
  %7 = load i32, ptr %4, align 4
  %8 = zext i32 %7 to i64
  %9 = call noundef nonnull align 8 dereferenceable(16) ptr @_ZNK4llvm25SmallVectorTemplateCommonINS_9MCOperandEvEixEm(ptr noundef nonnull align 8 dereferenceable(16) %6, i64 noundef %8)
  ret ptr %9
}

; Function Attrs: mustprogress nounwind uwtable
define dso_local void @_ZN4llvm18AArch64InstPrinter12printShifterEPKNS_6MCInstEjRKNS_15MCSubtargetInfoERNS_11raw_ostreamE(ptr noundef nonnull align 8 dereferenceable(58) %0, ptr noundef %1, i32 noundef %2, ptr noundef nonnull align 8 dereferenceable(288) %3, ptr noundef nonnull align 8 dereferenceable(48) %4) #0 align 2 {
  %6 = alloca ptr, align 8
  %7 = alloca ptr, align 8
  %8 = alloca i32, align 4
  %9 = alloca ptr, align 8
  %10 = alloca ptr, align 8
  %11 = alloca i32, align 4
  %12 = alloca %"class.llvm::MCInstPrinter::WithMarkup", align 8
  %13 = alloca i32, align 4
  store ptr %0, ptr %6, align 8
  store ptr %1, ptr %7, align 8
  store i32 %2, ptr %8, align 4
  store ptr %3, ptr %9, align 8
  store ptr %4, ptr %10, align 8
  %14 = load ptr, ptr %6, align 8
  %15 = load ptr, ptr %7, align 8
  %16 = load i32, ptr %8, align 4
  %17 = call noundef nonnull align 8 dereferenceable(16) ptr @_ZNK4llvm6MCInst10getOperandEj(ptr noundef nonnull align 8 dereferenceable(128) %15, i32 noundef %16)
  %18 = call noundef i64 @_ZNK4llvm9MCOperand6getImmEv(ptr noundef nonnull align 8 dereferenceable(16) %17)
  %19 = trunc i64 %18 to i32
  store i32 %19, ptr %11, align 4
  %20 = load i32, ptr %11, align 4
  %21 = call noundef i32 @_ZN4llvm10AArch64_AML12getShiftTypeEj(i32 noundef %20)
  %22 = icmp eq i32 %21, 0
  br i1 %22, label %23, label %28

23:                                               ; preds = %5
  %24 = load i32, ptr %11, align 4
  %25 = call noundef i32 @_ZN4llvm10AArch64_AML13getShiftValueEj(i32 noundef %24)
  %26 = icmp eq i32 %25, 0
  br i1 %26, label %27, label %28

27:                                               ; preds = %23
  br label %41

28:                                               ; preds = %23, %5
  %29 = load ptr, ptr %10, align 8
  %30 = call noundef nonnull align 8 dereferenceable(48) ptr @_ZN4llvm11raw_ostreamlsEPKc(ptr noundef nonnull align 8 dereferenceable(48) %29, ptr noundef @.str.1)
  %31 = load i32, ptr %11, align 4
  %32 = call noundef i32 @_ZN4llvm10AArch64_AML12getShiftTypeEj(i32 noundef %31)
  %33 = call noundef ptr @_ZN4llvm10AArch64_AML18getShiftExtendNameENS0_15ShiftExtendTypeE(i32 noundef %32)
  %34 = call noundef nonnull align 8 dereferenceable(48) ptr @_ZN4llvm11raw_ostreamlsEPKc(ptr noundef nonnull align 8 dereferenceable(48) %30, ptr noundef %33)
  %35 = call noundef nonnull align 8 dereferenceable(48) ptr @_ZN4llvm11raw_ostreamlsEPKc(ptr noundef nonnull align 8 dereferenceable(48) %34, ptr noundef @.str.119)
  %36 = load ptr, ptr %10, align 8
  call void @_ZNK4llvm13MCInstPrinter6markupERNS_11raw_ostreamENS0_6MarkupE(ptr dead_on_unwind writable sret(%"class.llvm::MCInstPrinter::WithMarkup") align 8 %12, ptr noundef nonnull align 8 dereferenceable(58) %14, ptr noundef nonnull align 8 dereferenceable(48) %36, i32 noundef 0)
  %37 = call noundef nonnull align 8 dereferenceable(10) ptr @_ZN4llvm13MCInstPrinter10WithMarkuplsIA2_cEERS1_RKT_(ptr noundef nonnull align 8 dereferenceable(10) %12, ptr noundef nonnull align 1 dereferenceable(2) @.str.87)
  %38 = load i32, ptr %11, align 4
  %39 = call noundef i32 @_ZN4llvm10AArch64_AML13getShiftValueEj(i32 noundef %38)
  store i32 %39, ptr %13, align 4
  %40 = call noundef nonnull align 8 dereferenceable(10) ptr @_ZN4llvm13MCInstPrinter10WithMarkuplsIjEERS1_RKT_(ptr noundef nonnull align 8 dereferenceable(10) %37, ptr noundef nonnull align 4 dereferenceable(4) %13)
  call void @_ZN4llvm13MCInstPrinter10WithMarkupD1Ev(ptr noundef nonnull align 8 dereferenceable(10) %12) #12
  br label %41

41:                                               ; preds = %28, %27
  ret void
}