; Function Attrs: mustprogress nounwind uwtable
define dso_local void @_ZN4llvm18AArch64InstPrinter12printShifterEPKNS_6MCInstEjRKNS_15MCSubtargetInfoERNS_11raw_ostreamE(ptr noundef nonnull align 8 dereferenceable(58) %0, ptr nocapture noundef readonly %1, i32 noundef %2, ptr nocapture nonnull readnone align 8 %3, ptr noundef nonnull align 8 dereferenceable(48) %4) local_unnamed_addr #1 align 2 {
  %6 = alloca %"class.llvm::MCInstPrinter::WithMarkup", align 8
  %7 = getelementptr inbounds nuw i8, ptr %1, i64 16
  %8 = zext i32 %2 to i64
  %9 = load ptr, ptr %7, align 8
  %10 = getelementptr inbounds %"class.llvm::MCOperand", ptr %9, i64 %8, i32 1
  %11 = load i64, ptr %10, align 8
  %12 = trunc i64 %11 to i32
  %13 = lshr i32 %12, 6
  %14 = and i32 %13, 7
  %15 = and i32 %12, 63
  %16 = or i32 %14, %15
  %or.cond = icmp eq i32 %16, 0
  br i1 %or.cond, label %68, label %_ZN4llvm10AArch64_AML12getShiftTypeEj.exit.thread

_ZN4llvm10AArch64_AML12getShiftTypeEj.exit.thread: ; preds = %5
  %17 = getelementptr inbounds nuw i8, ptr %4, i64 24
  %18 = load ptr, ptr %17, align 8
  %19 = getelementptr inbounds nuw i8, ptr %4, i64 32
  %20 = load ptr, ptr %19, align 8
  %21 = ptrtoint ptr %18 to i64
  %22 = ptrtoint ptr %20 to i64
  %23 = sub i64 %21, %22
  %24 = icmp ult i64 %23, 2
  br i1 %24, label %25, label %27

25:                                               ; preds = %_ZN4llvm10AArch64_AML12getShiftTypeEj.exit.thread
  %26 = tail call noundef nonnull align 8 dereferenceable(48) ptr @_ZN4llvm11raw_ostream5writeEPKcm(ptr noundef nonnull align 8 dereferenceable(48) %4, ptr noundef nonnull @.str.1, i64 noundef 2) #22
  br label %switch.lookup

27:                                               ; preds = %_ZN4llvm10AArch64_AML12getShiftTypeEj.exit.thread
  store i16 8236, ptr %20, align 1
  %28 = load ptr, ptr %19, align 8
  %29 = getelementptr inbounds i8, ptr %28, i64 2
  store ptr %29, ptr %19, align 8
  br label %switch.lookup

switch.lookup:                                    ; preds = %27, %25
  %.0.i.i = phi ptr [ %26, %25 ], [ %4, %27 ]
  %30 = zext nneg i32 %14 to i64
  %switch.gep = getelementptr inbounds [5 x ptr], ptr @switch.table._ZN4llvm18AArch64InstPrinter12printShifterEPKNS_6MCInstEjRKNS_15MCSubtargetInfoERNS_11raw_ostreamE, i64 0, i64 %30
  %switch.load = load ptr, ptr %switch.gep, align 8
  %31 = getelementptr inbounds nuw i8, ptr %.0.i.i, i64 24
  %32 = load ptr, ptr %31, align 8
  %33 = getelementptr inbounds nuw i8, ptr %.0.i.i, i64 32
  %34 = load ptr, ptr %33, align 8
  %35 = ptrtoint ptr %32 to i64
  %36 = ptrtoint ptr %34 to i64
  %37 = sub i64 %35, %36
  %38 = icmp ult i64 %37, 3
  br i1 %38, label %39, label %41

39:                                               ; preds = %switch.lookup
  %40 = tail call noundef nonnull align 8 dereferenceable(48) ptr @_ZN4llvm11raw_ostream5writeEPKcm(ptr noundef nonnull align 8 dereferenceable(48) %.0.i.i, ptr noundef nonnull %switch.load, i64 noundef 3) #22
  %.phi.trans.insert = getelementptr inbounds nuw i8, ptr %40, i64 32
  %.pre = load ptr, ptr %.phi.trans.insert, align 8
  br label %_ZN4llvm11raw_ostreamlsEPKc.exit13

41:                                               ; preds = %switch.lookup
  tail call void @llvm.memcpy.p0.p0.i64(ptr noundef nonnull align 1 dereferenceable(3) %34, ptr noundef nonnull align 1 dereferenceable(3) %switch.load, i64 3, i1 false)
  %42 = load ptr, ptr %33, align 8
  %43 = getelementptr inbounds i8, ptr %42, i64 3
  store ptr %43, ptr %33, align 8
  br label %_ZN4llvm11raw_ostreamlsEPKc.exit13

_ZN4llvm11raw_ostreamlsEPKc.exit13:               ; preds = %39, %41
  %44 = phi ptr [ %.pre, %39 ], [ %43, %41 ]
  %.0.i.i12 = phi ptr [ %40, %39 ], [ %.0.i.i, %41 ]
  %45 = getelementptr inbounds nuw i8, ptr %.0.i.i12, i64 24
  %46 = load ptr, ptr %45, align 8
  %47 = icmp eq ptr %46, %44
  br i1 %47, label %48, label %50

48:                                               ; preds = %_ZN4llvm11raw_ostreamlsEPKc.exit13
  %49 = tail call noundef nonnull align 8 dereferenceable(48) ptr @_ZN4llvm11raw_ostream5writeEPKcm(ptr noundef nonnull align 8 dereferenceable(48) %.0.i.i12, ptr noundef nonnull @.str.119, i64 noundef 1) #22
  br label %_ZN4llvm11raw_ostreamlsEPKc.exit16

50:                                               ; preds = %_ZN4llvm11raw_ostreamlsEPKc.exit13
  %51 = getelementptr inbounds nuw i8, ptr %.0.i.i12, i64 32
  store i8 32, ptr %44, align 1
  %52 = load ptr, ptr %51, align 8
  %53 = getelementptr inbounds i8, ptr %52, i64 1
  store ptr %53, ptr %51, align 8
  br label %_ZN4llvm11raw_ostreamlsEPKc.exit16

_ZN4llvm11raw_ostreamlsEPKc.exit16:               ; preds = %48, %50
  call void @_ZNK4llvm13MCInstPrinter6markupERNS_11raw_ostreamENS0_6MarkupE(ptr dead_on_unwind nonnull writable sret(%"class.llvm::MCInstPrinter::WithMarkup") align 8 %6, ptr noundef nonnull align 8 dereferenceable(58) %0, ptr noundef nonnull align 8 dereferenceable(48) %4, i32 noundef 0) #22
  %54 = load ptr, ptr %6, align 8
  %55 = getelementptr inbounds nuw i8, ptr %54, i64 24
  %56 = load ptr, ptr %55, align 8
  %57 = getelementptr inbounds nuw i8, ptr %54, i64 32
  %58 = load ptr, ptr %57, align 8
  %59 = icmp eq ptr %56, %58
  br i1 %59, label %60, label %62

60:                                               ; preds = %_ZN4llvm11raw_ostreamlsEPKc.exit16
  %61 = call noundef nonnull align 8 dereferenceable(48) ptr @_ZN4llvm11raw_ostream5writeEPKcm(ptr noundef nonnull align 8 dereferenceable(48) %54, ptr noundef nonnull @.str.87, i64 noundef 1) #22
  br label %_ZN4llvm13MCInstPrinter10WithMarkuplsIA2_cEERS1_RKT_.exit

62:                                               ; preds = %_ZN4llvm11raw_ostreamlsEPKc.exit16
  store i8 35, ptr %58, align 1
  %63 = load ptr, ptr %57, align 8
  %64 = getelementptr inbounds i8, ptr %63, i64 1
  store ptr %64, ptr %57, align 8
  br label %_ZN4llvm13MCInstPrinter10WithMarkuplsIA2_cEERS1_RKT_.exit

_ZN4llvm13MCInstPrinter10WithMarkuplsIA2_cEERS1_RKT_.exit: ; preds = %60, %62
  %65 = and i64 %11, 63
  %66 = load ptr, ptr %6, align 8
  %67 = call noundef nonnull align 8 dereferenceable(48) ptr @_ZN4llvm11raw_ostreamlsEm(ptr noundef nonnull align 8 dereferenceable(48) %66, i64 noundef %65) #22
  call void @_ZN4llvm13MCInstPrinter10WithMarkupD1Ev(ptr noundef nonnull align 8 dereferenceable(10) %6) #22
  br label %68

68:                                               ; preds = %5, %_ZN4llvm13MCInstPrinter10WithMarkuplsIA2_cEERS1_RKT_.exit
  ret void
}